
I2C.elf:     file format elf32-avr

Sections:
Idx Name          Size      VMA       LMA       File off  Algn
  0 .data         00000002  00800100  000002c8  0000035c  2**0
                  CONTENTS, ALLOC, LOAD, DATA
  1 .text         000002c8  00000000  00000000  00000094  2**1
                  CONTENTS, ALLOC, LOAD, READONLY, CODE
  2 .bss          00000008  00800102  00800102  0000035e  2**0
                  ALLOC

Disassembly of section .text:

00000000 <__vectors>:
   0:	33 c0       	rjmp	.+102    	; 0x68 <__ctors_end>
   2:	00 00       	nop
   4:	4c c0       	rjmp	.+152    	; 0x9e <__bad_interrupt>
   6:	00 00       	nop
   8:	4a c0       	rjmp	.+148    	; 0x9e <__bad_interrupt>
   a:	00 00       	nop
   c:	48 c0       	rjmp	.+144    	; 0x9e <__bad_interrupt>
   e:	00 00       	nop
  10:	46 c0       	rjmp	.+140    	; 0x9e <__bad_interrupt>
  12:	00 00       	nop
  14:	44 c0       	rjmp	.+136    	; 0x9e <__bad_interrupt>
  16:	00 00       	nop
  18:	42 c0       	rjmp	.+132    	; 0x9e <__bad_interrupt>
  1a:	00 00       	nop
  1c:	40 c0       	rjmp	.+128    	; 0x9e <__bad_interrupt>
  1e:	00 00       	nop
  20:	3e c0       	rjmp	.+124    	; 0x9e <__bad_interrupt>
  22:	00 00       	nop
  24:	3c c0       	rjmp	.+120    	; 0x9e <__bad_interrupt>
  26:	00 00       	nop
  28:	3a c0       	rjmp	.+116    	; 0x9e <__bad_interrupt>
  2a:	00 00       	nop
  2c:	38 c0       	rjmp	.+112    	; 0x9e <__bad_interrupt>
  2e:	00 00       	nop
  30:	36 c0       	rjmp	.+108    	; 0x9e <__bad_interrupt>
  32:	00 00       	nop
  34:	34 c0       	rjmp	.+104    	; 0x9e <__bad_interrupt>
  36:	00 00       	nop
  38:	32 c0       	rjmp	.+100    	; 0x9e <__bad_interrupt>
  3a:	00 00       	nop
  3c:	30 c0       	rjmp	.+96     	; 0x9e <__bad_interrupt>
  3e:	00 00       	nop
  40:	2e c0       	rjmp	.+92     	; 0x9e <__bad_interrupt>
  42:	00 00       	nop
  44:	2c c0       	rjmp	.+88     	; 0x9e <__bad_interrupt>
  46:	00 00       	nop
  48:	2a c0       	rjmp	.+84     	; 0x9e <__bad_interrupt>
  4a:	00 00       	nop
  4c:	28 c0       	rjmp	.+80     	; 0x9e <__bad_interrupt>
  4e:	00 00       	nop
  50:	26 c0       	rjmp	.+76     	; 0x9e <__bad_interrupt>
  52:	00 00       	nop
  54:	24 c0       	rjmp	.+72     	; 0x9e <__bad_interrupt>
  56:	00 00       	nop
  58:	22 c0       	rjmp	.+68     	; 0x9e <__bad_interrupt>
  5a:	00 00       	nop
  5c:	20 c0       	rjmp	.+64     	; 0x9e <__bad_interrupt>
  5e:	00 00       	nop
  60:	1e c0       	rjmp	.+60     	; 0x9e <__bad_interrupt>
  62:	00 00       	nop
  64:	1c c0       	rjmp	.+56     	; 0x9e <__bad_interrupt>
	...

00000068 <__ctors_end>:
  68:	11 24       	eor	r1, r1
  6a:	1f be       	out	0x3f, r1	; 63
  6c:	cf ef       	ldi	r28, 0xFF	; 255
  6e:	d8 e0       	ldi	r29, 0x08	; 8
  70:	de bf       	out	0x3e, r29	; 62
  72:	cd bf       	out	0x3d, r28	; 61

00000074 <__do_copy_data>:
  74:	11 e0       	ldi	r17, 0x01	; 1
  76:	a0 e0       	ldi	r26, 0x00	; 0
  78:	b1 e0       	ldi	r27, 0x01	; 1
  7a:	e8 ec       	ldi	r30, 0xC8	; 200
  7c:	f2 e0       	ldi	r31, 0x02	; 2
  7e:	02 c0       	rjmp	.+4      	; 0x84 <.do_copy_data_start>

00000080 <.do_copy_data_loop>:
  80:	05 90       	lpm	r0, Z+
  82:	0d 92       	st	X+, r0

00000084 <.do_copy_data_start>:
  84:	a2 30       	cpi	r26, 0x02	; 2
  86:	b1 07       	cpc	r27, r17
  88:	d9 f7       	brne	.-10     	; 0x80 <.do_copy_data_loop>

0000008a <__do_clear_bss>:
  8a:	11 e0       	ldi	r17, 0x01	; 1
  8c:	a2 e0       	ldi	r26, 0x02	; 2
  8e:	b1 e0       	ldi	r27, 0x01	; 1
  90:	01 c0       	rjmp	.+2      	; 0x94 <.do_clear_bss_start>

00000092 <.do_clear_bss_loop>:
  92:	1d 92       	st	X+, r1

00000094 <.do_clear_bss_start>:
  94:	aa 30       	cpi	r26, 0x0A	; 10
  96:	b1 07       	cpc	r27, r17
  98:	e1 f7       	brne	.-8      	; 0x92 <.do_clear_bss_loop>
  9a:	96 d0       	rcall	.+300    	; 0x1c8 <main>
  9c:	13 c1       	rjmp	.+550    	; 0x2c4 <_exit>

0000009e <__bad_interrupt>:
  9e:	b0 cf       	rjmp	.-160    	; 0x0 <__vectors>

000000a0 <_Z12I2C_Stop_Comv>:
  a0:	84 e9       	ldi	r24, 0x94	; 148
  a2:	80 93 bc 00 	sts	0x00BC, r24
  a6:	08 95       	ret

000000a8 <_Z20I2C_Receive_Byte_ACKv>:
  a8:	84 ec       	ldi	r24, 0xC4	; 196
  aa:	80 93 bc 00 	sts	0x00BC, r24
  ae:	80 91 bc 00 	lds	r24, 0x00BC
  b2:	87 ff       	sbrs	r24, 7
  b4:	fc cf       	rjmp	.-8      	; 0xae <_Z20I2C_Receive_Byte_ACKv+0x6>
  b6:	80 91 bb 00 	lds	r24, 0x00BB
  ba:	08 95       	ret

000000bc <_Z21I2C_Receive_Byte_NACKv>:
  bc:	84 e8       	ldi	r24, 0x84	; 132
  be:	80 93 bc 00 	sts	0x00BC, r24
  c2:	80 91 bc 00 	lds	r24, 0x00BC
  c6:	87 ff       	sbrs	r24, 7
  c8:	fc cf       	rjmp	.-8      	; 0xc2 <_Z21I2C_Receive_Byte_NACKv+0x6>
  ca:	80 91 bb 00 	lds	r24, 0x00BB
  ce:	08 95       	ret

000000d0 <_Z14Write_Registerhh>:
  d0:	98 2f       	mov	r25, r24
  d2:	84 ea       	ldi	r24, 0xA4	; 164
  d4:	80 93 bc 00 	sts	0x00BC, r24
  d8:	80 91 bc 00 	lds	r24, 0x00BC
  dc:	87 ff       	sbrs	r24, 7
  de:	fc cf       	rjmp	.-8      	; 0xd8 <_Z14Write_Registerhh+0x8>
  e0:	80 91 00 01 	lds	r24, 0x0100
  e4:	80 93 bb 00 	sts	0x00BB, r24
  e8:	84 e8       	ldi	r24, 0x84	; 132
  ea:	80 93 bc 00 	sts	0x00BC, r24
  ee:	80 91 bc 00 	lds	r24, 0x00BC
  f2:	87 ff       	sbrs	r24, 7
  f4:	fc cf       	rjmp	.-8      	; 0xee <_Z14Write_Registerhh+0x1e>
  f6:	90 93 bb 00 	sts	0x00BB, r25
  fa:	84 e8       	ldi	r24, 0x84	; 132
  fc:	80 93 bc 00 	sts	0x00BC, r24
 100:	80 91 bc 00 	lds	r24, 0x00BC
 104:	87 ff       	sbrs	r24, 7
 106:	fc cf       	rjmp	.-8      	; 0x100 <_Z14Write_Registerhh+0x30>
 108:	60 93 bb 00 	sts	0x00BB, r22
 10c:	84 e8       	ldi	r24, 0x84	; 132
 10e:	80 93 bc 00 	sts	0x00BC, r24
 112:	80 91 bc 00 	lds	r24, 0x00BC
 116:	87 ff       	sbrs	r24, 7
 118:	fc cf       	rjmp	.-8      	; 0x112 <_Z14Write_Registerhh+0x42>
 11a:	84 e9       	ldi	r24, 0x94	; 148
 11c:	80 93 bc 00 	sts	0x00BC, r24
 120:	08 95       	ret

00000122 <_Z13Read_Registerh>:
 122:	98 2f       	mov	r25, r24
 124:	84 ea       	ldi	r24, 0xA4	; 164
 126:	80 93 bc 00 	sts	0x00BC, r24
 12a:	80 91 bc 00 	lds	r24, 0x00BC
 12e:	87 ff       	sbrs	r24, 7
 130:	fc cf       	rjmp	.-8      	; 0x12a <_Z13Read_Registerh+0x8>
 132:	80 91 00 01 	lds	r24, 0x0100
 136:	80 93 bb 00 	sts	0x00BB, r24
 13a:	84 e8       	ldi	r24, 0x84	; 132
 13c:	80 93 bc 00 	sts	0x00BC, r24
 140:	80 91 bc 00 	lds	r24, 0x00BC
 144:	87 ff       	sbrs	r24, 7
 146:	fc cf       	rjmp	.-8      	; 0x140 <_Z13Read_Registerh+0x1e>
 148:	90 93 bb 00 	sts	0x00BB, r25
 14c:	84 e8       	ldi	r24, 0x84	; 132
 14e:	80 93 bc 00 	sts	0x00BC, r24
 152:	80 91 bc 00 	lds	r24, 0x00BC
 156:	87 ff       	sbrs	r24, 7
 158:	fc cf       	rjmp	.-8      	; 0x152 <_Z13Read_Registerh+0x30>
 15a:	84 ea       	ldi	r24, 0xA4	; 164
 15c:	80 93 bc 00 	sts	0x00BC, r24
 160:	80 91 bc 00 	lds	r24, 0x00BC
 164:	87 ff       	sbrs	r24, 7
 166:	fc cf       	rjmp	.-8      	; 0x160 <_Z13Read_Registerh+0x3e>
 168:	80 91 01 01 	lds	r24, 0x0101
 16c:	80 93 bb 00 	sts	0x00BB, r24
 170:	84 e8       	ldi	r24, 0x84	; 132
 172:	80 93 bc 00 	sts	0x00BC, r24
 176:	80 91 bc 00 	lds	r24, 0x00BC
 17a:	87 ff       	sbrs	r24, 7
 17c:	fc cf       	rjmp	.-8      	; 0x176 <_Z13Read_Registerh+0x54>
 17e:	08 95       	ret

00000180 <_Z20Read_Single_Registerh>:
 180:	d0 df       	rcall	.-96     	; 0x122 <_Z13Read_Registerh>
 182:	84 e8       	ldi	r24, 0x84	; 132
 184:	80 93 bc 00 	sts	0x00BC, r24
 188:	80 91 bc 00 	lds	r24, 0x00BC
 18c:	87 ff       	sbrs	r24, 7
 18e:	fc cf       	rjmp	.-8      	; 0x188 <_Z20Read_Single_Registerh+0x8>
 190:	80 91 bb 00 	lds	r24, 0x00BB
 194:	94 e9       	ldi	r25, 0x94	; 148
 196:	90 93 bc 00 	sts	0x00BC, r25
 19a:	08 95       	ret

0000019c <_Z15MMA8451_Standbyv>:
 19c:	8a e2       	ldi	r24, 0x2A	; 42
 19e:	f0 df       	rcall	.-32     	; 0x180 <_Z20Read_Single_Registerh>
 1a0:	68 2f       	mov	r22, r24
 1a2:	6e 7f       	andi	r22, 0xFE	; 254
 1a4:	60 93 03 01 	sts	0x0103, r22
 1a8:	8a e2       	ldi	r24, 0x2A	; 42
 1aa:	92 cf       	rjmp	.-220    	; 0xd0 <_Z14Write_Registerhh>

000001ac <_Z14MMA8451_Activev>:
 1ac:	8a e2       	ldi	r24, 0x2A	; 42
 1ae:	e8 df       	rcall	.-48     	; 0x180 <_Z20Read_Single_Registerh>
 1b0:	68 2f       	mov	r22, r24
 1b2:	61 60       	ori	r22, 0x01	; 1
 1b4:	60 93 03 01 	sts	0x0103, r22
 1b8:	8a e2       	ldi	r24, 0x2A	; 42
 1ba:	8a cf       	rjmp	.-236    	; 0xd0 <_Z14Write_Registerhh>

000001bc <_Z8I2C_Initv>:
 1bc:	ef df       	rcall	.-34     	; 0x19c <_Z15MMA8451_Standbyv>
 1be:	8e e0       	ldi	r24, 0x0E	; 14
 1c0:	60 91 02 01 	lds	r22, 0x0102
 1c4:	85 df       	rcall	.-246    	; 0xd0 <_Z14Write_Registerhh>
 1c6:	f2 cf       	rjmp	.-28     	; 0x1ac <_Z14MMA8451_Activev>

000001c8 <main>:
 1c8:	af 92       	push	r10
 1ca:	bf 92       	push	r11
 1cc:	cf 92       	push	r12
 1ce:	df 92       	push	r13
 1d0:	ef 92       	push	r14
 1d2:	ff 92       	push	r15
 1d4:	1f 93       	push	r17
 1d6:	cf 93       	push	r28
 1d8:	df 93       	push	r29
 1da:	80 e3       	ldi	r24, 0x30	; 48
 1dc:	88 b9       	out	0x08, r24	; 8
 1de:	83 e0       	ldi	r24, 0x03	; 3
 1e0:	80 93 b8 00 	sts	0x00B8, r24
 1e4:	81 e0       	ldi	r24, 0x01	; 1
 1e6:	80 93 b9 00 	sts	0x00B9, r24
 1ea:	84 e0       	ldi	r24, 0x04	; 4
 1ec:	80 93 bc 00 	sts	0x00BC, r24
 1f0:	e5 df       	rcall	.-54     	; 0x1bc <_Z8I2C_Initv>
 1f2:	88 e3       	ldi	r24, 0x38	; 56
 1f4:	84 b9       	out	0x04, r24	; 4
 1f6:	50 e9       	ldi	r21, 0x90	; 144
 1f8:	a5 2e       	mov	r10, r21
 1fa:	51 e0       	ldi	r21, 0x01	; 1
 1fc:	b5 2e       	mov	r11, r21
 1fe:	81 e0       	ldi	r24, 0x01	; 1
 200:	90 df       	rcall	.-224    	; 0x122 <_Z13Read_Registerh>
 202:	52 df       	rcall	.-348    	; 0xa8 <_Z20I2C_Receive_Byte_ACKv>
 204:	18 2f       	mov	r17, r24
 206:	50 df       	rcall	.-352    	; 0xa8 <_Z20I2C_Receive_Byte_ACKv>
 208:	90 e0       	ldi	r25, 0x00	; 0
 20a:	95 95       	asr	r25
 20c:	87 95       	ror	r24
 20e:	95 95       	asr	r25
 210:	87 95       	ror	r24
 212:	d1 2e       	mov	r13, r17
 214:	cc 24       	eor	r12, r12
 216:	8c 0d       	add	r24, r12
 218:	9d 1d       	adc	r25, r13
 21a:	90 93 05 01 	sts	0x0105, r25
 21e:	80 93 04 01 	sts	0x0104, r24
 222:	42 df       	rcall	.-380    	; 0xa8 <_Z20I2C_Receive_Byte_ACKv>
 224:	18 2f       	mov	r17, r24
 226:	40 df       	rcall	.-384    	; 0xa8 <_Z20I2C_Receive_Byte_ACKv>
 228:	90 e0       	ldi	r25, 0x00	; 0
 22a:	95 95       	asr	r25
 22c:	87 95       	ror	r24
 22e:	95 95       	asr	r25
 230:	87 95       	ror	r24
 232:	f1 2e       	mov	r15, r17
 234:	ee 24       	eor	r14, r14
 236:	8e 0d       	add	r24, r14
 238:	9f 1d       	adc	r25, r15
 23a:	90 93 07 01 	sts	0x0107, r25
 23e:	80 93 06 01 	sts	0x0106, r24
 242:	32 df       	rcall	.-412    	; 0xa8 <_Z20I2C_Receive_Byte_ACKv>
 244:	18 2f       	mov	r17, r24
 246:	3a df       	rcall	.-396    	; 0xbc <_Z21I2C_Receive_Byte_NACKv>
 248:	90 e0       	ldi	r25, 0x00	; 0
 24a:	95 95       	asr	r25
 24c:	87 95       	ror	r24
 24e:	95 95       	asr	r25
 250:	87 95       	ror	r24
 252:	d1 2f       	mov	r29, r17
 254:	c0 e0       	ldi	r28, 0x00	; 0
 256:	8c 0f       	add	r24, r28
 258:	9d 1f       	adc	r25, r29
 25a:	90 93 09 01 	sts	0x0109, r25
 25e:	80 93 08 01 	sts	0x0108, r24
 262:	1e df       	rcall	.-452    	; 0xa0 <_Z12I2C_Stop_Comv>
 264:	80 91 04 01 	lds	r24, 0x0104
 268:	90 91 05 01 	lds	r25, 0x0105
 26c:	18 16       	cp	r1, r24
 26e:	19 06       	cpc	r1, r25
 270:	1c f0       	brlt	.+6      	; 0x278 <main+0xb0>
 272:	60 e0       	ldi	r22, 0x00	; 0
 274:	70 e0       	ldi	r23, 0x00	; 0
 276:	02 c0       	rjmp	.+4      	; 0x27c <main+0xb4>
 278:	68 e0       	ldi	r22, 0x08	; 8
 27a:	70 e0       	ldi	r23, 0x00	; 0
 27c:	80 91 06 01 	lds	r24, 0x0106
 280:	90 91 07 01 	lds	r25, 0x0107
 284:	18 16       	cp	r1, r24
 286:	19 06       	cpc	r1, r25
 288:	1c f0       	brlt	.+6      	; 0x290 <main+0xc8>
 28a:	40 e0       	ldi	r20, 0x00	; 0
 28c:	50 e0       	ldi	r21, 0x00	; 0
 28e:	02 c0       	rjmp	.+4      	; 0x294 <main+0xcc>
 290:	40 e1       	ldi	r20, 0x10	; 16
 292:	50 e0       	ldi	r21, 0x00	; 0
 294:	80 91 08 01 	lds	r24, 0x0108
 298:	90 91 09 01 	lds	r25, 0x0109
 29c:	18 16       	cp	r1, r24
 29e:	19 06       	cpc	r1, r25
 2a0:	1c f0       	brlt	.+6      	; 0x2a8 <main+0xe0>
 2a2:	20 e0       	ldi	r18, 0x00	; 0
 2a4:	30 e0       	ldi	r19, 0x00	; 0
 2a6:	02 c0       	rjmp	.+4      	; 0x2ac <main+0xe4>
 2a8:	20 e2       	ldi	r18, 0x20	; 32
 2aa:	30 e0       	ldi	r19, 0x00	; 0
 2ac:	84 2f       	mov	r24, r20
 2ae:	86 2b       	or	r24, r22
 2b0:	82 2b       	or	r24, r18
 2b2:	85 b9       	out	0x05, r24	; 5
 2b4:	88 e8       	ldi	r24, 0x88	; 136
 2b6:	93 e1       	ldi	r25, 0x13	; 19
 2b8:	f5 01       	movw	r30, r10
 2ba:	31 97       	sbiw	r30, 0x01	; 1
 2bc:	f1 f7       	brne	.-4      	; 0x2ba <main+0xf2>
 2be:	01 97       	sbiw	r24, 0x01	; 1
 2c0:	d9 f7       	brne	.-10     	; 0x2b8 <main+0xf0>
 2c2:	9d cf       	rjmp	.-198    	; 0x1fe <main+0x36>

000002c4 <_exit>:
 2c4:	f8 94       	cli

000002c6 <__stop_program>:
 2c6:	ff cf       	rjmp	.-2      	; 0x2c6 <__stop_program>
